; Function Attrs: mustprogress uwtable
define internal void @_ZN9grpc_core12_GLOBAL__N_110RoundRobin18ResetBackoffLockedEv(ptr noundef nonnull readonly align 8 captures(none) dereferenceable(368) %0) unnamed_addr #3 align 2 {
  %2 = getelementptr inbounds nuw i8, ptr %0, i64 56
  %.val = load ptr, ptr %2, align 8, !tbaa !69
  tail call void @_ZN9grpc_core12EndpointList18ResetBackoffLockedEv(ptr noundef nonnull align 8 dereferenceable(96) %.val)
  %3 = getelementptr inbounds nuw i8, ptr %0, i64 64
  %.val2 = load ptr, ptr %3, align 8, !tbaa !69
  %.not = icmp eq ptr %.val2, null
  br i1 %.not, label %5, label %4

4:                                                ; preds = %1
  tail call void @_ZN9grpc_core12EndpointList18ResetBackoffLockedEv(ptr noundef nonnull align 8 dereferenceable(96) %.val2)
  br label %5

5:                                                ; preds = %4, %1
  ret void
}